; Function Attrs: nounwind uwtable
define internal noundef i32 @hash_array_start(ptr noundef readonly captures(none) %0) #0 {
  %2 = load ptr, ptr %0, align 8
  %3 = getelementptr inbounds nuw i8, ptr %2, i64 56
  %4 = load i32, ptr %3, align 8
  %5 = icmp eq i32 %4, 0
  br i1 %5, label %6, label %12

6:                                                ; preds = %1
  %7 = tail call zeroext i1 @errstart_cold(i32 noundef 21, ptr noundef null) #16
  tail call void @llvm.assume(i1 %7)
  %8 = tail call i32 @errcode(i32 noundef 50856066) #15
  %9 = getelementptr inbounds nuw i8, ptr %0, i64 8
  %10 = load ptr, ptr %9, align 8
  %11 = tail call i32 (ptr, ...) @errmsg(ptr noundef nonnull @.str.3, ptr noundef %10) #15
  tail call void @errfinish(ptr noundef nonnull @.str.2, i32 noundef 3936, ptr noundef nonnull @__func__.hash_array_start) #15
  unreachable

12:                                               ; preds = %1
  ret i32 0
}